; ModuleID = 'source-C-CXX/44/1009.c'
source_filename = "source-C-CXX/44/1009.c"
target datalayout = "e-m:e-p270:32:32-p271:32:32-p272:64:64-i64:64-f80:128-n8:16:32:64-S128"
target triple = "x86_64-pc-linux-gnu"

@.str = private unnamed_addr constant [5 x i8] c"%s%s\00", align 1
@.str.1 = private unnamed_addr constant [3 x i8] c"%d\00", align 1

; Function Attrs: nofree nounwind sspstrong uwtable
define dso_local i32 @main() local_unnamed_addr #0 {
  %1 = alloca [51 x i8], align 16
  %2 = alloca [51 x i8], align 16
  %3 = getelementptr inbounds [51 x i8], [51 x i8]* %1, i64 0, i64 0
  call void @llvm.lifetime.start.p0i8(i64 51, i8* nonnull %3) #3
  %4 = getelementptr inbounds [51 x i8], [51 x i8]* %2, i64 0, i64 0
  call void @llvm.lifetime.start.p0i8(i64 51, i8* nonnull %4) #3
  %5 = call i32 (i8*, ...) @__isoc99_scanf(i8* getelementptr inbounds ([5 x i8], [5 x i8]* @.str, i64 0, i64 0), i8* nonnull %3, i8* nonnull %4)
  %6 = load i8, i8* %4, align 16, !tbaa !5
  %7 = icmp eq i8 %6, 0
  br i1 %7, label %28, label %8

8:                                                ; preds = %0, %17
  %9 = phi i64 [ %21, %17 ], [ 0, %0 ]
  %10 = phi i8 [ %24, %17 ], [ %6, %0 ]
  %11 = phi i32 [ %20, %17 ], [ 0, %0 ]
  %12 = phi i32 [ %22, %17 ], [ 0, %0 ]
  %13 = sext i32 %11 to i64
  %14 = getelementptr inbounds [51 x i8], [51 x i8]* %1, i64 0, i64 %13
  %15 = load i8, i8* %14, align 1, !tbaa !5
  %16 = icmp eq i8 %15, 0
  br i1 %16, label %26, label %17

17:                                               ; preds = %8
  %18 = icmp eq i8 %15, %10
  %19 = add nsw i32 %11, 1
  %20 = select i1 %18, i32 %19, i32 0
  %21 = add nuw i64 %9, 1
  %22 = add nuw nsw i32 %12, 1
  %23 = getelementptr inbounds [51 x i8], [51 x i8]* %2, i64 0, i64 %21
  %24 = load i8, i8* %23, align 1, !tbaa !5
  %25 = icmp eq i8 %24, 0
  br i1 %25, label %28, label %8

26:                                               ; preds = %8
  %27 = trunc i64 %9 to i32
  br label %28

28:                                               ; preds = %17, %26, %0
  %29 = phi i32 [ 0, %0 ], [ %27, %26 ], [ %22, %17 ]
  %30 = phi i32 [ 0, %0 ], [ %11, %26 ], [ %20, %17 ]
  %31 = sub nsw i32 %29, %30
  %32 = call i32 (i8*, ...) @printf(i8* nonnull dereferenceable(1) getelementptr inbounds ([3 x i8], [3 x i8]* @.str.1, i64 0, i64 0), i32 %31)
  call void @llvm.lifetime.end.p0i8(i64 51, i8* nonnull %4) #3
  call void @llvm.lifetime.end.p0i8(i64 51, i8* nonnull %3) #3
  ret i32 0
}

; Function Attrs: argmemonly mustprogress nofree nosync nounwind willreturn
declare void @llvm.lifetime.start.p0i8(i64 immarg, i8* nocapture) #1

; Function Attrs: nofree nounwind
declare noundef i32 @__isoc99_scanf(i8* nocapture noundef readonly, ...) local_unnamed_addr #2

; Function Attrs: nofree nounwind
declare noundef i32 @printf(i8* nocapture noundef readonly, ...) local_unnamed_addr #2

; Function Attrs: argmemonly mustprogress nofree nosync nounwind willreturn
declare void @llvm.lifetime.end.p0i8(i64 immarg, i8* nocapture) #1


!llvm.module.flags = !{!0, !1, !2, !3}
!llvm.ident = !{!4}

!0 = !{i32 1, !"wchar_size", i32 4}
!1 = !{i32 7, !"PIC Level", i32 2}
!2 = !{i32 7, !"PIE Level", i32 2}
!3 = !{i32 7, !"uwtable", i32 1}
!4 = !{!"clang version 13.0.0"}
!5 = !{!6, !6, i64 0}
!6 = !{!"omnipotent char", !7, i64 0}
!7 = !{!"Simple C/C++ TBAA"}
